target datalayout = "e-m:e-p270:32:32-p271:32:32-p272:64:64-i64:64-i128:128-f80:128-n8:16:32:64-S128"
target triple = "x86_64-unknown-linux-gnu"

%"class.icu_75::InputText" = type <{ ptr, i32, [4 x i8], ptr, i8, [7 x i8], ptr, ptr, i32, [4 x i8] }>

@.str.12 = private unnamed_addr constant [13 x i8] c"ISO-8859-8-I\00", align 1
@.str.13 = private unnamed_addr constant [3 x i8] c"he\00", align 1
@.str.14 = private unnamed_addr constant [13 x i8] c"windows-1255\00", align 1

; Function Attrs: mustprogress uwtable
define noundef signext i8 @_ZNK6icu_7524CharsetRecog_8859_8_I_he5matchEPNS_9InputTextEPNS_12CharsetMatchE(ptr noundef nonnull align 8 dereferenceable(8) %this, ptr noundef %textIn, ptr noundef %results) unnamed_addr #2 align 2 {
entry:
  %this.addr = alloca ptr, align 8
  %textIn.addr = alloca ptr, align 8
  %results.addr = alloca ptr, align 8
  %name = alloca ptr, align 8
  %confidence = alloca i32, align 4
  store ptr %this, ptr %this.addr, align 8
  store ptr %textIn, ptr %textIn.addr, align 8
  store ptr %results, ptr %results.addr, align 8
  %this1 = load ptr, ptr %this.addr, align 8
  %0 = load ptr, ptr %textIn.addr, align 8
  %fC1Bytes = getelementptr inbounds %"class.icu_75::InputText", ptr %0, i32 0, i32 4
  %1 = load i8, ptr %fC1Bytes, align 8
  %tobool = icmp ne i8 %1, 0
  br i1 %tobool, label %cond.true, label %cond.false

cond.true:                                        ; preds = %entry
  br label %cond.end

cond.false:                                       ; preds = %entry
  br label %cond.end

cond.end:                                         ; preds = %cond.false, %cond.true
  %cond-lvalue = phi ptr [ @.str.14, %cond.true ], [ @.str.12, %cond.false ]
  %arraydecay = getelementptr inbounds [13 x i8], ptr %cond-lvalue, i64 0, i64 0
  store ptr %arraydecay, ptr %name, align 8
  %2 = load ptr, ptr %textIn.addr, align 8
  %vtable = load ptr, ptr %this1, align 8
  %vfn = getelementptr inbounds ptr, ptr %vtable, i64 5
  %3 = load ptr, ptr %vfn, align 8
  %call = call noundef i32 %3(ptr noundef nonnull align 8 dereferenceable(8) %this1, ptr noundef %2, ptr noundef @_ZN6icu_75L18ngrams_8859_8_I_heE, ptr noundef @_ZN6icu_75L14charMap_8859_8E)
  store i32 %call, ptr %confidence, align 4
  %4 = load ptr, ptr %results.addr, align 8
  %5 = load ptr, ptr %textIn.addr, align 8
  %6 = load i32, ptr %confidence, align 4
  %7 = load ptr, ptr %name, align 8
  call void @_ZN6icu_7512CharsetMatch3setEPNS_9InputTextEPKNS_17CharsetRecognizerEiPKcS7_(ptr noundef nonnull align 8 dereferenceable(32) %4, ptr noundef %5, ptr noundef %this1, i32 noundef %6, ptr noundef %7, ptr noundef @.str.13)
  %8 = load i32, ptr %confidence, align 4
  %cmp = icmp sgt i32 %8, 0
  %conv = zext i1 %cmp to i8
  ret i8 %conv
}